target datalayout = "e-m:e-p270:32:32-p271:32:32-p272:64:64-i64:64-i128:128-f80:128-n8:16:32:64-S128"
target triple = "x86_64-pc-linux-gnu"

%struct.z_stream_s = type { ptr, i32, i64, ptr, i32, i64, ptr, ptr, ptr, ptr, ptr, i32, i64, i64 }
%struct.internal_state = type { ptr, i32, ptr, i64, ptr, i64, i32, ptr, i64, i8, i32, i32, i32, i32, ptr, i64, ptr, ptr, i32, i32, i32, i32, i32, i64, i32, i32, i32, i32, i32, i32, i32, i32, i32, i32, i32, i32, i32, [573 x %struct.ct_data_s], [61 x %struct.ct_data_s], [39 x %struct.ct_data_s], %struct.tree_desc_s, %struct.tree_desc_s, %struct.tree_desc_s, [16 x i16], [573 x i32], i32, i32, [573 x i8], ptr, i32, i32, i32, i64, i64, i32, i32, i16, i32, i64 }
%struct.ct_data_s = type { %union.anon, %union.anon.0 }
%union.anon = type { i16 }
%union.anon.0 = type { i16 }
%struct.tree_desc_s = type { ptr, i32, ptr }

; Function Attrs: nounwind uwtable
define internal i32 @deflateStateCheck(ptr noundef %0) #0 {
  %2 = alloca i32, align 4
  %3 = alloca ptr, align 8
  %4 = alloca ptr, align 8
  %5 = alloca i32, align 4
  store ptr %0, ptr %3, align 8, !tbaa !4
  call void @llvm.lifetime.start.p0(i64 8, ptr %4) #5
  %6 = load ptr, ptr %3, align 8, !tbaa !4
  %7 = icmp eq ptr %6, null
  br i1 %7, label %18, label %8

8:                                                ; preds = %1
  %9 = load ptr, ptr %3, align 8, !tbaa !4
  %10 = getelementptr inbounds nuw %struct.z_stream_s, ptr %9, i32 0, i32 8
  %11 = load ptr, ptr %10, align 8, !tbaa !18
  %12 = icmp eq ptr %11, null
  br i1 %12, label %18, label %13

13:                                               ; preds = %8
  %14 = load ptr, ptr %3, align 8, !tbaa !4
  %15 = getelementptr inbounds nuw %struct.z_stream_s, ptr %14, i32 0, i32 9
  %16 = load ptr, ptr %15, align 8, !tbaa !20
  %17 = icmp eq ptr %16, null
  br i1 %17, label %18, label %19

18:                                               ; preds = %13, %8, %1
  store i32 1, ptr %2, align 4
  store i32 1, ptr %5, align 4
  br label %73

19:                                               ; preds = %13
  %20 = load ptr, ptr %3, align 8, !tbaa !4
  %21 = getelementptr inbounds nuw %struct.z_stream_s, ptr %20, i32 0, i32 7
  %22 = load ptr, ptr %21, align 8, !tbaa !22
  store ptr %22, ptr %4, align 8, !tbaa !21
  %23 = load ptr, ptr %4, align 8, !tbaa !21
  %24 = icmp eq ptr %23, null
  br i1 %24, label %71, label %25

25:                                               ; preds = %19
  %26 = load ptr, ptr %4, align 8, !tbaa !21
  %27 = getelementptr inbounds nuw %struct.internal_state, ptr %26, i32 0, i32 0
  %28 = load ptr, ptr %27, align 8, !tbaa !23
  %29 = load ptr, ptr %3, align 8, !tbaa !4
  %30 = icmp ne ptr %28, %29
  br i1 %30, label %71, label %31

31:                                               ; preds = %25
  %32 = load ptr, ptr %4, align 8, !tbaa !21
  %33 = getelementptr inbounds nuw %struct.internal_state, ptr %32, i32 0, i32 1
  %34 = load i32, ptr %33, align 8, !tbaa !31
  %35 = icmp ne i32 %34, 42
  br i1 %35, label %36, label %72

36:                                               ; preds = %31
  %37 = load ptr, ptr %4, align 8, !tbaa !21
  %38 = getelementptr inbounds nuw %struct.internal_state, ptr %37, i32 0, i32 1
  %39 = load i32, ptr %38, align 8, !tbaa !31
  %40 = icmp ne i32 %39, 57
  br i1 %40, label %41, label %72

41:                                               ; preds = %36
  %42 = load ptr, ptr %4, align 8, !tbaa !21
  %43 = getelementptr inbounds nuw %struct.internal_state, ptr %42, i32 0, i32 1
  %44 = load i32, ptr %43, align 8, !tbaa !31
  %45 = icmp ne i32 %44, 69
  br i1 %45, label %46, label %72

46:                                               ; preds = %41
  %47 = load ptr, ptr %4, align 8, !tbaa !21
  %48 = getelementptr inbounds nuw %struct.internal_state, ptr %47, i32 0, i32 1
  %49 = load i32, ptr %48, align 8, !tbaa !31
  %50 = icmp ne i32 %49, 73
  br i1 %50, label %51, label %72

51:                                               ; preds = %46
  %52 = load ptr, ptr %4, align 8, !tbaa !21
  %53 = getelementptr inbounds nuw %struct.internal_state, ptr %52, i32 0, i32 1
  %54 = load i32, ptr %53, align 8, !tbaa !31
  %55 = icmp ne i32 %54, 91
  br i1 %55, label %56, label %72

56:                                               ; preds = %51
  %57 = load ptr, ptr %4, align 8, !tbaa !21
  %58 = getelementptr inbounds nuw %struct.internal_state, ptr %57, i32 0, i32 1
  %59 = load i32, ptr %58, align 8, !tbaa !31
  %60 = icmp ne i32 %59, 103
  br i1 %60, label %61, label %72

61:                                               ; preds = %56
  %62 = load ptr, ptr %4, align 8, !tbaa !21
  %63 = getelementptr inbounds nuw %struct.internal_state, ptr %62, i32 0, i32 1
  %64 = load i32, ptr %63, align 8, !tbaa !31
  %65 = icmp ne i32 %64, 113
  br i1 %65, label %66, label %72

66:                                               ; preds = %61
  %67 = load ptr, ptr %4, align 8, !tbaa !21
  %68 = getelementptr inbounds nuw %struct.internal_state, ptr %67, i32 0, i32 1
  %69 = load i32, ptr %68, align 8, !tbaa !31
  %70 = icmp ne i32 %69, 666
  br i1 %70, label %71, label %72

71:                                               ; preds = %66, %25, %19
  store i32 1, ptr %2, align 4
  store i32 1, ptr %5, align 4
  br label %73

72:                                               ; preds = %66, %61, %56, %51, %46, %41, %36, %31
  store i32 0, ptr %2, align 4
  store i32 1, ptr %5, align 4
  br label %73

73:                                               ; preds = %72, %71, %18
  call void @llvm.lifetime.end.p0(i64 8, ptr %4) #5
  %74 = load i32, ptr %2, align 4
  ret i32 %74
}

; Function Attrs: nounwind uwtable
define dso_local i32 @cm_zlib_deflateCopy(ptr noundef %0, ptr noundef %1) #0 {
  %3 = alloca i32, align 4
  %4 = alloca ptr, align 8
  %5 = alloca ptr, align 8
  %6 = alloca ptr, align 8
  %7 = alloca ptr, align 8
  %8 = alloca i32, align 4
  store ptr %0, ptr %4, align 8, !tbaa !4
  store ptr %1, ptr %5, align 8, !tbaa !4
  call void @llvm.lifetime.start.p0(i64 8, ptr %6) #5
  call void @llvm.lifetime.start.p0(i64 8, ptr %7) #5
  %9 = load ptr, ptr %5, align 8, !tbaa !4
  %10 = call i32 @deflateStateCheck(ptr noundef %9)
  %11 = icmp ne i32 %10, 0
  br i1 %11, label %15, label %12

12:                                               ; preds = %2
  %13 = load ptr, ptr %4, align 8, !tbaa !4
  %14 = icmp eq ptr %13, null
  br i1 %14, label %15, label %16

15:                                               ; preds = %12, %2
  store i32 -2, ptr %3, align 4
  store i32 1, ptr %8, align 4
  br label %200

16:                                               ; preds = %12
  %17 = load ptr, ptr %5, align 8, !tbaa !4
  %18 = getelementptr inbounds nuw %struct.z_stream_s, ptr %17, i32 0, i32 7
  %19 = load ptr, ptr %18, align 8, !tbaa !22
  store ptr %19, ptr %7, align 8, !tbaa !21
  %20 = load ptr, ptr %4, align 8, !tbaa !4
  %21 = load ptr, ptr %5, align 8, !tbaa !4
  call void @llvm.memcpy.p0.p0.i64(ptr align 1 %20, ptr align 1 %21, i64 112, i1 false)
  %22 = load ptr, ptr %4, align 8, !tbaa !4
  %23 = getelementptr inbounds nuw %struct.z_stream_s, ptr %22, i32 0, i32 8
  %24 = load ptr, ptr %23, align 8, !tbaa !18
  %25 = load ptr, ptr %4, align 8, !tbaa !4
  %26 = getelementptr inbounds nuw %struct.z_stream_s, ptr %25, i32 0, i32 10
  %27 = load ptr, ptr %26, align 8, !tbaa !19
  %28 = call ptr %24(ptr noundef %27, i32 noundef 1, i32 noundef 5952)
  store ptr %28, ptr %6, align 8, !tbaa !21
  %29 = load ptr, ptr %6, align 8, !tbaa !21
  %30 = icmp eq ptr %29, null
  br i1 %30, label %31, label %32

31:                                               ; preds = %16
  store i32 -4, ptr %3, align 4
  store i32 1, ptr %8, align 4
  br label %200

32:                                               ; preds = %16
  %33 = load ptr, ptr %6, align 8, !tbaa !21
  %34 = load ptr, ptr %4, align 8, !tbaa !4
  %35 = getelementptr inbounds nuw %struct.z_stream_s, ptr %34, i32 0, i32 7
  store ptr %33, ptr %35, align 8, !tbaa !22
  %36 = load ptr, ptr %6, align 8, !tbaa !21
  %37 = load ptr, ptr %7, align 8, !tbaa !21
  call void @llvm.memcpy.p0.p0.i64(ptr align 1 %36, ptr align 1 %37, i64 5952, i1 false)
  %38 = load ptr, ptr %4, align 8, !tbaa !4
  %39 = load ptr, ptr %6, align 8, !tbaa !21
  %40 = getelementptr inbounds nuw %struct.internal_state, ptr %39, i32 0, i32 0
  store ptr %38, ptr %40, align 8, !tbaa !23
  %41 = load ptr, ptr %4, align 8, !tbaa !4
  %42 = getelementptr inbounds nuw %struct.z_stream_s, ptr %41, i32 0, i32 8
  %43 = load ptr, ptr %42, align 8, !tbaa !18
  %44 = load ptr, ptr %4, align 8, !tbaa !4
  %45 = getelementptr inbounds nuw %struct.z_stream_s, ptr %44, i32 0, i32 10
  %46 = load ptr, ptr %45, align 8, !tbaa !19
  %47 = load ptr, ptr %6, align 8, !tbaa !21
  %48 = getelementptr inbounds nuw %struct.internal_state, ptr %47, i32 0, i32 11
  %49 = load i32, ptr %48, align 8, !tbaa !35
  %50 = call ptr %43(ptr noundef %46, i32 noundef %49, i32 noundef 2)
  %51 = load ptr, ptr %6, align 8, !tbaa !21
  %52 = getelementptr inbounds nuw %struct.internal_state, ptr %51, i32 0, i32 14
  store ptr %50, ptr %52, align 8, !tbaa !41
  %53 = load ptr, ptr %4, align 8, !tbaa !4
  %54 = getelementptr inbounds nuw %struct.z_stream_s, ptr %53, i32 0, i32 8
  %55 = load ptr, ptr %54, align 8, !tbaa !18
  %56 = load ptr, ptr %4, align 8, !tbaa !4
  %57 = getelementptr inbounds nuw %struct.z_stream_s, ptr %56, i32 0, i32 10
  %58 = load ptr, ptr %57, align 8, !tbaa !19
  %59 = load ptr, ptr %6, align 8, !tbaa !21
  %60 = getelementptr inbounds nuw %struct.internal_state, ptr %59, i32 0, i32 11
  %61 = load i32, ptr %60, align 8, !tbaa !35
  %62 = call ptr %55(ptr noundef %58, i32 noundef %61, i32 noundef 2)
  %63 = load ptr, ptr %6, align 8, !tbaa !21
  %64 = getelementptr inbounds nuw %struct.internal_state, ptr %63, i32 0, i32 16
  store ptr %62, ptr %64, align 8, !tbaa !42
  %65 = load ptr, ptr %4, align 8, !tbaa !4
  %66 = getelementptr inbounds nuw %struct.z_stream_s, ptr %65, i32 0, i32 8
  %67 = load ptr, ptr %66, align 8, !tbaa !18
  %68 = load ptr, ptr %4, align 8, !tbaa !4
  %69 = getelementptr inbounds nuw %struct.z_stream_s, ptr %68, i32 0, i32 10
  %70 = load ptr, ptr %69, align 8, !tbaa !19
  %71 = load ptr, ptr %6, align 8, !tbaa !21
  %72 = getelementptr inbounds nuw %struct.internal_state, ptr %71, i32 0, i32 19
  %73 = load i32, ptr %72, align 4, !tbaa !38
  %74 = call ptr %67(ptr noundef %70, i32 noundef %73, i32 noundef 2)
  %75 = load ptr, ptr %6, align 8, !tbaa !21
  %76 = getelementptr inbounds nuw %struct.internal_state, ptr %75, i32 0, i32 17
  store ptr %74, ptr %76, align 8, !tbaa !43
  %77 = load ptr, ptr %4, align 8, !tbaa !4
  %78 = getelementptr inbounds nuw %struct.z_stream_s, ptr %77, i32 0, i32 8
  %79 = load ptr, ptr %78, align 8, !tbaa !18
  %80 = load ptr, ptr %4, align 8, !tbaa !4
  %81 = getelementptr inbounds nuw %struct.z_stream_s, ptr %80, i32 0, i32 10
  %82 = load ptr, ptr %81, align 8, !tbaa !19
  %83 = load ptr, ptr %6, align 8, !tbaa !21
  %84 = getelementptr inbounds nuw %struct.internal_state, ptr %83, i32 0, i32 49
  %85 = load i32, ptr %84, align 8, !tbaa !45
  %86 = call ptr %79(ptr noundef %82, i32 noundef %85, i32 noundef 4)
  %87 = load ptr, ptr %6, align 8, !tbaa !21
  %88 = getelementptr inbounds nuw %struct.internal_state, ptr %87, i32 0, i32 2
  store ptr %86, ptr %88, align 8, !tbaa !46
  %89 = load ptr, ptr %6, align 8, !tbaa !21
  %90 = getelementptr inbounds nuw %struct.internal_state, ptr %89, i32 0, i32 14
  %91 = load ptr, ptr %90, align 8, !tbaa !41
  %92 = icmp eq ptr %91, null
  br i1 %92, label %108, label %93

93:                                               ; preds = %32
  %94 = load ptr, ptr %6, align 8, !tbaa !21
  %95 = getelementptr inbounds nuw %struct.internal_state, ptr %94, i32 0, i32 16
  %96 = load ptr, ptr %95, align 8, !tbaa !42
  %97 = icmp eq ptr %96, null
  br i1 %97, label %108, label %98

98:                                               ; preds = %93
  %99 = load ptr, ptr %6, align 8, !tbaa !21
  %100 = getelementptr inbounds nuw %struct.internal_state, ptr %99, i32 0, i32 17
  %101 = load ptr, ptr %100, align 8, !tbaa !43
  %102 = icmp eq ptr %101, null
  br i1 %102, label %108, label %103

103:                                              ; preds = %98
  %104 = load ptr, ptr %6, align 8, !tbaa !21
  %105 = getelementptr inbounds nuw %struct.internal_state, ptr %104, i32 0, i32 2
  %106 = load ptr, ptr %105, align 8, !tbaa !46
  %107 = icmp eq ptr %106, null
  br i1 %107, label %108, label %111

108:                                              ; preds = %103, %98, %93, %32
  %109 = load ptr, ptr %4, align 8, !tbaa !4
  %110 = call i32 @cm_zlib_deflateEnd(ptr noundef %109)
  store i32 -4, ptr %3, align 4
  store i32 1, ptr %8, align 4
  br label %200

111:                                              ; preds = %103
  %112 = load ptr, ptr %6, align 8, !tbaa !21
  %113 = getelementptr inbounds nuw %struct.internal_state, ptr %112, i32 0, i32 14
  %114 = load ptr, ptr %113, align 8, !tbaa !41
  %115 = load ptr, ptr %7, align 8, !tbaa !21
  %116 = getelementptr inbounds nuw %struct.internal_state, ptr %115, i32 0, i32 14
  %117 = load ptr, ptr %116, align 8, !tbaa !41
  %118 = load ptr, ptr %6, align 8, !tbaa !21
  %119 = getelementptr inbounds nuw %struct.internal_state, ptr %118, i32 0, i32 11
  %120 = load i32, ptr %119, align 8, !tbaa !35
  %121 = mul i32 %120, 2
  %122 = zext i32 %121 to i64
  %123 = mul i64 %122, 1
  call void @llvm.memcpy.p0.p0.i64(ptr align 1 %114, ptr align 1 %117, i64 %123, i1 false)
  %124 = load ptr, ptr %6, align 8, !tbaa !21
  %125 = getelementptr inbounds nuw %struct.internal_state, ptr %124, i32 0, i32 16
  %126 = load ptr, ptr %125, align 8, !tbaa !42
  %127 = load ptr, ptr %7, align 8, !tbaa !21
  %128 = getelementptr inbounds nuw %struct.internal_state, ptr %127, i32 0, i32 16
  %129 = load ptr, ptr %128, align 8, !tbaa !42
  %130 = load ptr, ptr %6, align 8, !tbaa !21
  %131 = getelementptr inbounds nuw %struct.internal_state, ptr %130, i32 0, i32 11
  %132 = load i32, ptr %131, align 8, !tbaa !35
  %133 = zext i32 %132 to i64
  %134 = mul i64 %133, 2
  call void @llvm.memcpy.p0.p0.i64(ptr align 1 %126, ptr align 1 %129, i64 %134, i1 false)
  %135 = load ptr, ptr %6, align 8, !tbaa !21
  %136 = getelementptr inbounds nuw %struct.internal_state, ptr %135, i32 0, i32 17
  %137 = load ptr, ptr %136, align 8, !tbaa !43
  %138 = load ptr, ptr %7, align 8, !tbaa !21
  %139 = getelementptr inbounds nuw %struct.internal_state, ptr %138, i32 0, i32 17
  %140 = load ptr, ptr %139, align 8, !tbaa !43
  %141 = load ptr, ptr %6, align 8, !tbaa !21
  %142 = getelementptr inbounds nuw %struct.internal_state, ptr %141, i32 0, i32 19
  %143 = load i32, ptr %142, align 4, !tbaa !38
  %144 = zext i32 %143 to i64
  %145 = mul i64 %144, 2
  call void @llvm.memcpy.p0.p0.i64(ptr align 1 %137, ptr align 1 %140, i64 %145, i1 false)
  %146 = load ptr, ptr %6, align 8, !tbaa !21
  %147 = getelementptr inbounds nuw %struct.internal_state, ptr %146, i32 0, i32 2
  %148 = load ptr, ptr %147, align 8, !tbaa !46
  %149 = load ptr, ptr %7, align 8, !tbaa !21
  %150 = getelementptr inbounds nuw %struct.internal_state, ptr %149, i32 0, i32 2
  %151 = load ptr, ptr %150, align 8, !tbaa !46
  %152 = load ptr, ptr %6, align 8, !tbaa !21
  %153 = getelementptr inbounds nuw %struct.internal_state, ptr %152, i32 0, i32 49
  %154 = load i32, ptr %153, align 8, !tbaa !45
  %155 = mul i32 %154, 4
  %156 = zext i32 %155 to i64
  call void @llvm.memcpy.p0.p0.i64(ptr align 1 %148, ptr align 1 %151, i64 %156, i1 false)
  %157 = load ptr, ptr %6, align 8, !tbaa !21
  %158 = getelementptr inbounds nuw %struct.internal_state, ptr %157, i32 0, i32 2
  %159 = load ptr, ptr %158, align 8, !tbaa !46
  %160 = load ptr, ptr %7, align 8, !tbaa !21
  %161 = getelementptr inbounds nuw %struct.internal_state, ptr %160, i32 0, i32 4
  %162 = load ptr, ptr %161, align 8, !tbaa !79
  %163 = load ptr, ptr %7, align 8, !tbaa !21
  %164 = getelementptr inbounds nuw %struct.internal_state, ptr %163, i32 0, i32 2
  %165 = load ptr, ptr %164, align 8, !tbaa !46
  %166 = ptrtoint ptr %162 to i64
  %167 = ptrtoint ptr %165 to i64
  %168 = sub i64 %166, %167
  %169 = getelementptr inbounds i8, ptr %159, i64 %168
  %170 = load ptr, ptr %6, align 8, !tbaa !21
  %171 = getelementptr inbounds nuw %struct.internal_state, ptr %170, i32 0, i32 4
  store ptr %169, ptr %171, align 8, !tbaa !79
  %172 = load ptr, ptr %6, align 8, !tbaa !21
  %173 = getelementptr inbounds nuw %struct.internal_state, ptr %172, i32 0, i32 2
  %174 = load ptr, ptr %173, align 8, !tbaa !46
  %175 = load ptr, ptr %6, align 8, !tbaa !21
  %176 = getelementptr inbounds nuw %struct.internal_state, ptr %175, i32 0, i32 49
  %177 = load i32, ptr %176, align 8, !tbaa !45
  %178 = zext i32 %177 to i64
  %179 = getelementptr inbounds nuw i8, ptr %174, i64 %178
  %180 = load ptr, ptr %6, align 8, !tbaa !21
  %181 = getelementptr inbounds nuw %struct.internal_state, ptr %180, i32 0, i32 48
  store ptr %179, ptr %181, align 8, !tbaa !48
  %182 = load ptr, ptr %6, align 8, !tbaa !21
  %183 = getelementptr inbounds nuw %struct.internal_state, ptr %182, i32 0, i32 37
  %184 = getelementptr inbounds [573 x %struct.ct_data_s], ptr %183, i64 0, i64 0
  %185 = load ptr, ptr %6, align 8, !tbaa !21
  %186 = getelementptr inbounds nuw %struct.internal_state, ptr %185, i32 0, i32 40
  %187 = getelementptr inbounds nuw %struct.tree_desc_s, ptr %186, i32 0, i32 0
  store ptr %184, ptr %187, align 8, !tbaa !120
  %188 = load ptr, ptr %6, align 8, !tbaa !21
  %189 = getelementptr inbounds nuw %struct.internal_state, ptr %188, i32 0, i32 38
  %190 = getelementptr inbounds [61 x %struct.ct_data_s], ptr %189, i64 0, i64 0
  %191 = load ptr, ptr %6, align 8, !tbaa !21
  %192 = getelementptr inbounds nuw %struct.internal_state, ptr %191, i32 0, i32 41
  %193 = getelementptr inbounds nuw %struct.tree_desc_s, ptr %192, i32 0, i32 0
  store ptr %190, ptr %193, align 8, !tbaa !121
  %194 = load ptr, ptr %6, align 8, !tbaa !21
  %195 = getelementptr inbounds nuw %struct.internal_state, ptr %194, i32 0, i32 39
  %196 = getelementptr inbounds [39 x %struct.ct_data_s], ptr %195, i64 0, i64 0
  %197 = load ptr, ptr %6, align 8, !tbaa !21
  %198 = getelementptr inbounds nuw %struct.internal_state, ptr %197, i32 0, i32 42
  %199 = getelementptr inbounds nuw %struct.tree_desc_s, ptr %198, i32 0, i32 0
  store ptr %196, ptr %199, align 8, !tbaa !122
  store i32 0, ptr %3, align 4
  store i32 1, ptr %8, align 4
  br label %200

200:                                              ; preds = %111, %108, %31, %15
  call void @llvm.lifetime.end.p0(i64 8, ptr %7) #5
  call void @llvm.lifetime.end.p0(i64 8, ptr %6) #5
  %201 = load i32, ptr %3, align 4
  ret i32 %201
}